target datalayout = "e-m:e-p270:32:32-p271:32:32-p272:64:64-i64:64-i128:128-f80:128-n8:16:32:64-S128"
target triple = "x86_64-pc-linux-gnu"

%struct.rb_code_location_struct = type { %struct.rb_code_position_struct, %struct.rb_code_position_struct }
%struct.rb_code_position_struct = type { i32, i32 }
%struct.lex_context = type { i16, [2 x i8] }
%struct.parser_params = type { ptr, ptr, %struct.anon.12, i64, i64, i32, i32, i32, i32, i32, ptr, ptr, ptr, ptr, i32, i32, ptr, i64, ptr, ptr, ptr, ptr, i64, i64, %struct.anon.13, ptr, i32, ptr, i32, i64, %struct.lex_context, ptr, ptr, ptr, i32, i64, ptr, ptr, i32, ptr }
%struct.anon.12 = type { ptr, ptr, ptr, %struct.parser_string_buffer, ptr, ptr, ptr, ptr, ptr, ptr, i32, i32, i32, i32 }
%struct.parser_string_buffer = type { ptr, ptr }
%struct.anon.13 = type { ptr, i32, i32, i32, i32 }

@.str.555 = private unnamed_addr constant [3 x i8] c"%s\00", align 1

; Function Attrs: inlinehint nounwind sspstrong uwtable
define internal void @parser_show_error_line(ptr noundef %0, ptr noundef %1) #2 {
  %3 = alloca ptr, align 8
  %4 = alloca ptr, align 8
  %5 = alloca ptr, align 8
  %6 = alloca i32, align 4
  %7 = alloca i32, align 4
  store ptr %0, ptr %3, align 8, !tbaa !7
  store ptr %1, ptr %4, align 8, !tbaa !39
  call void @llvm.lifetime.start.p0(i64 8, ptr %5) #26
  call void @llvm.lifetime.start.p0(i64 4, ptr %6) #26
  %8 = load ptr, ptr %3, align 8, !tbaa !7
  %9 = getelementptr inbounds nuw %struct.parser_params, ptr %8, i32 0, i32 15
  %10 = load i32, ptr %9, align 4, !tbaa !82
  store i32 %10, ptr %6, align 4, !tbaa !34
  %11 = load ptr, ptr %4, align 8, !tbaa !39
  %12 = icmp ne ptr %11, null
  br i1 %12, label %14, label %13

13:                                               ; preds = %2
  store i32 1, ptr %7, align 4
  br label %36

14:                                               ; preds = %2
  %15 = load ptr, ptr %4, align 8, !tbaa !39
  %16 = getelementptr inbounds nuw %struct.rb_code_location_struct, ptr %15, i32 0, i32 0
  %17 = getelementptr inbounds nuw %struct.rb_code_position_struct, ptr %16, i32 0, i32 0
  %18 = load i32, ptr %17, align 4, !tbaa !173
  %19 = load i32, ptr %6, align 4, !tbaa !34
  %20 = icmp eq i32 %18, %19
  br i1 %20, label %21, label %26

21:                                               ; preds = %14
  %22 = load ptr, ptr %3, align 8, !tbaa !7
  %23 = getelementptr inbounds nuw %struct.parser_params, ptr %22, i32 0, i32 2
  %24 = getelementptr inbounds nuw %struct.anon.12, ptr %23, i32 0, i32 4
  %25 = load ptr, ptr %24, align 8, !tbaa !590
  store ptr %25, ptr %5, align 8, !tbaa !14
  br label %27

26:                                               ; preds = %14
  store i32 1, ptr %7, align 4
  br label %36

27:                                               ; preds = %21
  br label %28

28:                                               ; preds = %27
  %29 = load ptr, ptr %3, align 8, !tbaa !7
  %30 = load ptr, ptr %3, align 8, !tbaa !7
  %31 = getelementptr inbounds nuw %struct.parser_params, ptr %30, i32 0, i32 35
  %32 = load i64, ptr %31, align 8, !tbaa !453
  %33 = load ptr, ptr %4, align 8, !tbaa !39
  %34 = load i32, ptr %6, align 4, !tbaa !34
  %35 = load ptr, ptr %5, align 8, !tbaa !14
  call void @ruby_show_error_line(ptr noundef %29, i64 noundef %32, ptr noundef %33, i32 noundef %34, ptr noundef %35)
  store i32 0, ptr %7, align 4
  br label %36

36:                                               ; preds = %28, %26, %13
  call void @llvm.lifetime.end.p0(i64 4, ptr %6) #26
  call void @llvm.lifetime.end.p0(i64 8, ptr %5) #26
  %37 = load i32, ptr %7, align 4
  switch i32 %37, label %39 [
    i32 0, label %38
    i32 1, label %38
  ]

38:                                               ; preds = %36, %36
  ret void

39:                                               ; preds = %36
  unreachable
}

; Function Attrs: nounwind sspstrong uwtable
define internal i32 @parser_yyerror(ptr noundef nonnull %0, ptr noundef nonnull %1, ptr noundef nonnull %2) #0 {
  %4 = alloca ptr, align 8
  %5 = alloca ptr, align 8
  %6 = alloca ptr, align 8
  store ptr %0, ptr %4, align 8, !tbaa !7
  store ptr %1, ptr %5, align 8, !tbaa !39
  store ptr %2, ptr %6, align 8, !tbaa !19
  %7 = load ptr, ptr %4, align 8, !tbaa !7
  %8 = load ptr, ptr %5, align 8, !tbaa !39
  %9 = load ptr, ptr %6, align 8, !tbaa !19
  call void (ptr, ptr, ptr, ...) @parser_compile_error(ptr noundef %7, ptr noundef %8, ptr noundef @.str.555, ptr noundef %9)
  %10 = load ptr, ptr %4, align 8, !tbaa !7
  %11 = load ptr, ptr %5, align 8, !tbaa !39
  call void @parser_show_error_line(ptr noundef %10, ptr noundef %11)
  ret i32 0
}