; Function Attrs: nounwind sspstrong uwtable
define internal fastcc void @parser_yyerror(ptr noundef nonnull captures(none) %0, ptr noundef nonnull captures(address_is_null) %1, ptr noundef nonnull %2) unnamed_addr #0 {
  tail call void (ptr, ptr, ptr, ...) @parser_compile_error(ptr noundef nonnull %0, ptr noundef nonnull %1, ptr noundef nonnull @.str.555, ptr noundef nonnull %2)
  %4 = getelementptr inbounds nuw i8, ptr %0, i64 196
  %5 = load i32, ptr %4, align 4, !tbaa !31
  %6 = load i32, ptr %1, align 4, !tbaa !53
  %7 = icmp eq i32 %6, %5
  br i1 %7, label %8, label %parser_show_error_line.exit

8:                                                ; preds = %3
  %9 = getelementptr inbounds nuw i8, ptr %0, i64 56
  %10 = load ptr, ptr %9, align 8, !tbaa !185
  %11 = getelementptr inbounds nuw i8, ptr %0, i64 368
  %12 = load i64, ptr %11, align 8, !tbaa !186
  tail call void @ruby_show_error_line(ptr nonnull readonly poison, i64 noundef %12, ptr noundef nonnull %1, i32 noundef %5, ptr noundef %10)
  br label %parser_show_error_line.exit

parser_show_error_line.exit:                      ; preds = %3, %8
  ret void
}